target datalayout = "e-m:e-p270:32:32-p271:32:32-p272:64:64-i64:64-i128:128-f80:128-n8:16:32:64-S128"
target triple = "x86_64-pc-linux-gnu"

%"class.std::shared_ptr" = type { %"class.std::__shared_ptr" }
%"class.std::__shared_ptr" = type { ptr, %"class.std::__shared_count" }
%"class.std::__shared_count" = type { ptr }
%"class.std::shared_ptr.367" = type { %"class.std::__shared_ptr.368" }
%"class.std::__shared_ptr.368" = type { ptr, %"class.std::__shared_count" }

@__dso_handle = external hidden global i8
@_ZZN5arrow7booleanEvE6result = internal global %"class.std::shared_ptr" zeroinitializer, align 8
@_ZGVZN5arrow7booleanEvE6result = internal global i64 0, align 8

; Function Attrs: mustprogress nounwind uwtable
define linkonce_odr void @_ZNSt14__shared_countILN9__gnu_cxx12_Lock_policyE2EE7_M_swapERS2_(ptr noundef nonnull align 8 dereferenceable(8) %0, ptr noundef nonnull align 8 dereferenceable(8) %1) #0 comdat align 2 {
  %3 = alloca ptr, align 8
  %4 = alloca ptr, align 8
  %5 = alloca ptr, align 8
  store ptr %0, ptr %3, align 8, !tbaa !1046
  store ptr %1, ptr %4, align 8, !tbaa !1046
  %6 = load ptr, ptr %3, align 8
  call void @llvm.lifetime.start.p0(i64 8, ptr %5) #15
  %7 = load ptr, ptr %4, align 8, !tbaa !1046
  %8 = getelementptr inbounds nuw %"class.std::__shared_count", ptr %7, i32 0, i32 0
  %9 = load ptr, ptr %8, align 8, !tbaa !1048
  store ptr %9, ptr %5, align 8, !tbaa !1049
  %10 = getelementptr inbounds nuw %"class.std::__shared_count", ptr %6, i32 0, i32 0
  %11 = load ptr, ptr %10, align 8, !tbaa !1048
  %12 = load ptr, ptr %4, align 8, !tbaa !1046
  %13 = getelementptr inbounds nuw %"class.std::__shared_count", ptr %12, i32 0, i32 0
  store ptr %11, ptr %13, align 8, !tbaa !1048
  %14 = load ptr, ptr %5, align 8, !tbaa !1049
  %15 = getelementptr inbounds nuw %"class.std::__shared_count", ptr %6, i32 0, i32 0
  store ptr %14, ptr %15, align 8, !tbaa !1048
  call void @llvm.lifetime.end.p0(i64 8, ptr %5) #15
  ret void
}

; Function Attrs: mustprogress nounwind uwtable
define linkonce_odr void @_ZNSt14__shared_countILN9__gnu_cxx12_Lock_policyE2EEC2Ev(ptr noundef nonnull align 8 dereferenceable(8) %0) unnamed_addr #0 comdat align 2 {
  %2 = alloca ptr, align 8
  store ptr %0, ptr %2, align 8, !tbaa !1046
  %3 = load ptr, ptr %2, align 8
  %4 = getelementptr inbounds nuw %"class.std::__shared_count", ptr %3, i32 0, i32 0
  store ptr null, ptr %4, align 8, !tbaa !1048
  ret void
}

; Function Attrs: mustprogress nounwind uwtable
define linkonce_odr void @_ZNSt12__shared_ptrIN5arrow8DataTypeELN9__gnu_cxx12_Lock_policyE2EEC2INS0_11BooleanTypeEvEEOS_IT_LS3_2EE(ptr noundef nonnull align 8 dereferenceable(16) %0, ptr noundef nonnull align 8 dereferenceable(16) %1) unnamed_addr #0 comdat align 2 {
  %3 = alloca ptr, align 8
  %4 = alloca ptr, align 8
  store ptr %0, ptr %3, align 8, !tbaa !262
  store ptr %1, ptr %4, align 8, !tbaa !838
  %5 = load ptr, ptr %3, align 8
  %6 = getelementptr inbounds nuw %"class.std::__shared_ptr", ptr %5, i32 0, i32 0
  %7 = load ptr, ptr %4, align 8, !tbaa !838
  %8 = getelementptr inbounds nuw %"class.std::__shared_ptr.368", ptr %7, i32 0, i32 0
  %9 = load ptr, ptr %8, align 8, !tbaa !2406
  store ptr %9, ptr %6, align 8, !tbaa !264
  %10 = getelementptr inbounds nuw %"class.std::__shared_ptr", ptr %5, i32 0, i32 1
  call void @_ZNSt14__shared_countILN9__gnu_cxx12_Lock_policyE2EEC2Ev(ptr noundef nonnull align 8 dereferenceable(8) %10) #15
  %11 = getelementptr inbounds nuw %"class.std::__shared_ptr", ptr %5, i32 0, i32 1
  %12 = load ptr, ptr %4, align 8, !tbaa !838
  %13 = getelementptr inbounds nuw %"class.std::__shared_ptr.368", ptr %12, i32 0, i32 1
  call void @_ZNSt14__shared_countILN9__gnu_cxx12_Lock_policyE2EE7_M_swapERS2_(ptr noundef nonnull align 8 dereferenceable(8) %11, ptr noundef nonnull align 8 dereferenceable(8) %13) #15
  %14 = load ptr, ptr %4, align 8, !tbaa !838
  %15 = getelementptr inbounds nuw %"class.std::__shared_ptr.368", ptr %14, i32 0, i32 0
  store ptr null, ptr %15, align 8, !tbaa !2406
  ret void
}

; Function Attrs: mustprogress nounwind uwtable
define linkonce_odr void @_ZNSt10shared_ptrIN5arrow8DataTypeEEC2INS0_11BooleanTypeEvEEOS_IT_E(ptr noundef nonnull align 8 dereferenceable(16) %0, ptr noundef nonnull align 8 dereferenceable(16) %1) unnamed_addr #0 comdat align 2 {
  %3 = alloca ptr, align 8
  %4 = alloca ptr, align 8
  store ptr %0, ptr %3, align 8, !tbaa !193
  store ptr %1, ptr %4, align 8, !tbaa !836
  %5 = load ptr, ptr %3, align 8
  %6 = load ptr, ptr %4, align 8, !tbaa !836
  call void @_ZNSt12__shared_ptrIN5arrow8DataTypeELN9__gnu_cxx12_Lock_policyE2EEC2INS0_11BooleanTypeEvEEOS_IT_LS3_2EE(ptr noundef nonnull align 8 dereferenceable(16) %5, ptr noundef nonnull align 8 dereferenceable(16) %6) #15
  ret void
}

; Function Attrs: mustprogress uwtable
define noundef nonnull align 8 dereferenceable(16) ptr @_ZN5arrow7booleanEv() #1 personality ptr @__gxx_personality_v0 {
  %1 = alloca %"class.std::shared_ptr.367", align 8
  %2 = alloca ptr, align 8
  %3 = alloca i32, align 4
  %4 = load atomic i8, ptr @_ZGVZN5arrow7booleanEvE6result acquire, align 8
  %5 = icmp eq i8 %4, 0
  br i1 %5, label %6, label %12, !prof !831

6:                                                ; preds = %0
  %7 = call i32 @__cxa_guard_acquire(ptr @_ZGVZN5arrow7booleanEvE6result) #15
  %8 = icmp ne i32 %7, 0
  br i1 %8, label %9, label %12

9:                                                ; preds = %6
  call void @llvm.lifetime.start.p0(i64 16, ptr %1) #15
  invoke void @_ZSt11make_sharedIN5arrow11BooleanTypeEJEESt10shared_ptrINSt9enable_ifIXntsr8is_arrayIT_EE5valueES4_E4typeEEDpOT0_(ptr dead_on_unwind writable sret(%"class.std::shared_ptr.367") align 8 %1)
          to label %10 unwind label %13

10:                                               ; preds = %9
  call void @_ZNSt10shared_ptrIN5arrow8DataTypeEEC2INS0_11BooleanTypeEvEEOS_IT_E(ptr noundef nonnull align 8 dereferenceable(16) @_ZZN5arrow7booleanEvE6result, ptr noundef nonnull align 8 dereferenceable(16) %1) #15
  call void @_ZNSt12__shared_ptrIN5arrow11BooleanTypeELN9__gnu_cxx12_Lock_policyE2EED2Ev(ptr noundef nonnull align 8 dereferenceable(16) %1) #15
  call void @llvm.lifetime.end.p0(i64 16, ptr %1) #15
  %11 = call i32 @__cxa_atexit(ptr @_ZNSt12__shared_ptrIN5arrow8DataTypeELN9__gnu_cxx12_Lock_policyE2EED2Ev, ptr @_ZZN5arrow7booleanEvE6result, ptr @__dso_handle) #15
  call void @__cxa_guard_release(ptr @_ZGVZN5arrow7booleanEvE6result) #15
  br label %12

12:                                               ; preds = %10, %6, %0
  ret ptr @_ZZN5arrow7booleanEvE6result

13:                                               ; preds = %9
  %14 = landingpad { ptr, i32 }
          cleanup
  %15 = extractvalue { ptr, i32 } %14, 0
  store ptr %15, ptr %2, align 8
  %16 = extractvalue { ptr, i32 } %14, 1
  store i32 %16, ptr %3, align 4
  call void @llvm.lifetime.end.p0(i64 16, ptr %1) #15
  call void @__cxa_guard_abort(ptr @_ZGVZN5arrow7booleanEvE6result) #15
  br label %17

17:                                               ; preds = %13
  %18 = load ptr, ptr %2, align 8
  %19 = load i32, ptr %3, align 4
  %20 = insertvalue { ptr, i32 } poison, ptr %18, 0
  %21 = insertvalue { ptr, i32 } %20, i32 %19, 1
  resume { ptr, i32 } %21
}